issuer :/C=CH/ST=Switzerland/L=Geneva/O=Aleph/OU=Aleph/CN=AlainBonissent/Email=alain.bonissent@cern.ch
subject:/C=CH/ST=Switzerland/O=Aleph/OU=Scanbook/CN=Scanbook/Email=alain.bonissent@cern.ch
serial :011E

Certificate:
    Data:
        Version: 3 (0x2)
        Serial Number: 286 (0x11e)
        Signature Algorithm: md5WithRSAEncryption
        Issuer: C=CH, ST=Switzerland, L=Geneva, O=Aleph, OU=Aleph, CN=AlainBonissent/Email=alain.bonissent@cern.ch
        Validity
            Not Before: Mar  1 14:39:42 2000 GMT
            Not After : Feb  3 14:39:42 2005 GMT
        Subject: C=CH, ST=Switzerland, O=Aleph, OU=Scanbook, CN=Scanbook/Email=alain.bonissent@cern.ch
        Subject Public Key Info:
            Public Key Algorithm: rsaEncryption
            RSA Public Key: (512 bit)
                Modulus (512 bit):
                    00:9a:f2:8e:46:6a:5a:11:09:99:b3:15:b3:7d:bd:
                    c2:f5:56:d4:f5:d8:a6:43:f1:4d:6e:9e:c1:1d:65:
                    ca:a4:78:d1:b1:6a:25:f5:d9:97:18:64:eb:c4:63:
                    c0:17:60:5d:c7:f4:6a:bd:3f:55:6a:15:c9:d1:1e:
                    ca:f0:bd:f9:95
                Exponent: 65537 (0x10001)
        X509v3 extensions:
            X509v3 Basic Constraints: 
                CA:FALSE
            Netscape Cert Type: 
                SSL Client, S/MIME, Object Signing
            Netscape Comment: 
                Aleph certified Scanbook signature
            X509v3 Subject Key Identifier: 
                B6:34:C7:1C:D6:91:B2:28:4C:EC:CF:DA:80:2E:71:74:20:2B:E3:49
            X509v3 Authority Key Identifier: 
                keyid:57:D1:82:02:85:14:5C:4B:6F:F5:EE:0C:12:89:C5:5A:E0:ED:D2:7E
                DirName:/C=CH/ST=Switzerland/L=Geneva/O=Aleph/OU=Aleph/CN=AlainBonissent/Email=alain.bonissent@cern.ch
                serial:00

    Signature Algorithm: md5WithRSAEncryption
        13:9b:e0:af:89:f6:86:07:b3:c6:58:be:46:af:43:2e:25:bb:
        98:0a:2c:87:c1:38:d0:e1:23:a3:32:28:e4:b8:e7:9b:bb:b0:
        a4:10:58:fe:39:39:ad:b5:00:5c:bd:54:9a:71:d2:72:52:0f:
        b6:43:79:68:db:23:b1:97:21:56

-----BEGIN CERTIFICATE-----
MIIDRTCCAu+gAwIBAgICAR4wDQYJKoZIhvcNAQEEBQAwgZUxCzAJBgNVBAYTAkNI
MRQwEgYDVQQIEwtTd2l0emVybGFuZDEPMA0GA1UEBxMGR2VuZXZhMQ4wDAYDVQQK
EwVBbGVwaDEOMAwGA1UECxMFQWxlcGgxFzAVBgNVBAMTDkFsYWluQm9uaXNzZW50
MSYwJAYJKoZIhvcNAQkBFhdhbGFpbi5ib25pc3NlbnRAY2Vybi5jaDAeFw0wMDAz
MDExNDM5NDJaFw0wNTAyMDMxNDM5NDJaMIGBMQswCQYDVQQGEwJDSDEUMBIGA1UE
CBMLU3dpdHplcmxhbmQxDjAMBgNVBAoTBUFsZXBoMREwDwYDVQQLEwhTY2FuYm9v
azERMA8GA1UEAxMIU2NhbmJvb2sxJjAkBgkqhkiG9w0BCQEWF2FsYWluLmJvbmlz
c2VudEBjZXJuLmNoMFwwDQYJKoZIhvcNAQEBBQADSwAwSAJBAJryjkZqWhEJmbMV
s329wvVW1PXYpkPxTW6ewR1lyqR40bFqJfXZlxhk68RjwBdgXcf0ar0/VWoVydEe
yvC9+ZUCAwEAAaOCATkwggE1MAkGA1UdEwQCMAAwEQYJYIZIAYb4QgEBBAQDAgSw
MDEGCWCGSAGG+EIBDQQkFiJBbGVwaCBjZXJ0aWZpZWQgU2NhbmJvb2sgc2lnbmF0
dXJlMB0GA1UdDgQWBBS2NMcc1pGyKEzsz9qALnF0ICvjSTCBwgYDVR0jBIG6MIG3
gBRX0YIChRRcS2/17gwSicVa4O3SfqGBm6SBmDCBlTELMAkGA1UEBhMCQ0gxFDAS
BgNVBAgTC1N3aXR6ZXJsYW5kMQ8wDQYDVQQHEwZHZW5ldmExDjAMBgNVBAoTBUFs
ZXBoMQ4wDAYDVQQLEwVBbGVwaDEXMBUGA1UEAxMOQWxhaW5Cb25pc3NlbnQxJjAk
BgkqhkiG9w0BCQEWF2FsYWluLmJvbmlzc2VudEBjZXJuLmNoggEAMA0GCSqGSIb3
DQEBBAUAA0EAE5vgr4n2hgezxli+Rq9DLiW7mAosh8E40OEjozIo5Ljnm7uwpBBY
/jk5rbUAXL1UmnHSclIPtkN5aNsjsZchVg==
-----END CERTIFICATE-----

